(isampler
da_sampler
p0
(dp1
S'hmm_skeleton'
p2
(lp3
cnumpy.core.multiarray
scalar
p4
(cnumpy
dtype
p5
(S'S1'
p6
I0
I1
tp7
Rp8
(I3
S'|'
p9
NNNI1
I1
I0
tp10
bS'S'
p11
tp12
Rp13
ag4
(g5
(S'S1'
p14
I0
I1
tp15
Rp16
(I3
S'|'
p17
NNNI1
I1
I0
tp18
bg11
tp19
Rp20
ag4
(g5
(S'S1'
p21
I0
I1
tp22
Rp23
(I3
S'|'
p24
NNNI1
I1
I0
tp25
bg11
tp26
Rp27
ag4
(g5
(S'S1'
p28
I0
I1
tp29
Rp30
(I3
S'|'
p31
NNNI1
I1
I0
tp32
bg11
tp33
Rp34
ag4
(g5
(S'S1'
p35
I0
I1
tp36
Rp37
(I3
S'|'
p38
NNNI1
I1
I0
tp39
bg11
tp40
Rp41
ag4
(g5
(S'S1'
p42
I0
I1
tp43
Rp44
(I3
S'|'
p45
NNNI1
I1
I0
tp46
bg11
tp47
Rp48
ag4
(g5
(S'S1'
p49
I0
I1
tp50
Rp51
(I3
S'|'
p52
NNNI1
I1
I0
tp53
bg11
tp54
Rp55
ag4
(g5
(S'S1'
p56
I0
I1
tp57
Rp58
(I3
S'|'
p59
NNNI1
I1
I0
tp60
bg11
tp61
Rp62
ag4
(g5
(S'S1'
p63
I0
I1
tp64
Rp65
(I3
S'|'
p66
NNNI1
I1
I0
tp67
bg11
tp68
Rp69
ag4
(g5
(S'S1'
p70
I0
I1
tp71
Rp72
(I3
S'|'
p73
NNNI1
I1
I0
tp74
bg11
tp75
Rp76
ag4
(g5
(S'S1'
p77
I0
I1
tp78
Rp79
(I3
S'|'
p80
NNNI1
I1
I0
tp81
bg11
tp82
Rp83
ag4
(g5
(S'S1'
p84
I0
I1
tp85
Rp86
(I3
S'|'
p87
NNNI1
I1
I0
tp88
bg11
tp89
Rp90
ag4
(g5
(S'S1'
p91
I0
I1
tp92
Rp93
(I3
S'|'
p94
NNNI1
I1
I0
tp95
bg11
tp96
Rp97
ag4
(g5
(S'S1'
p98
I0
I1
tp99
Rp100
(I3
S'|'
p101
NNNI1
I1
I0
tp102
bg11
tp103
Rp104
ag4
(g5
(S'S1'
p105
I0
I1
tp106
Rp107
(I3
S'|'
p108
NNNI1
I1
I0
tp109
bg11
tp110
Rp111
ag4
(g5
(S'S1'
p112
I0
I1
tp113
Rp114
(I3
S'|'
p115
NNNI1
I1
I0
tp116
bg11
tp117
Rp118
ag4
(g5
(S'S1'
p119
I0
I1
tp120
Rp121
(I3
S'|'
p122
NNNI1
I1
I0
tp123
bg11
tp124
Rp125
ag4
(g5
(S'S1'
p126
I0
I1
tp127
Rp128
(I3
S'|'
p129
NNNI1
I1
I0
tp130
bg11
tp131
Rp132
ag4
(g5
(S'S1'
p133
I0
I1
tp134
Rp135
(I3
S'|'
p136
NNNI1
I1
I0
tp137
bg11
tp138
Rp139
ag4
(g5
(S'S1'
p140
I0
I1
tp141
Rp142
(I3
S'|'
p143
NNNI1
I1
I0
tp144
bg11
tp145
Rp146
ag4
(g5
(S'S1'
p147
I0
I1
tp148
Rp149
(I3
S'|'
p150
NNNI1
I1
I0
tp151
bg11
tp152
Rp153
ag4
(g5
(S'S1'
p154
I0
I1
tp155
Rp156
(I3
S'|'
p157
NNNI1
I1
I0
tp158
bg11
tp159
Rp160
ag4
(g5
(S'S1'
p161
I0
I1
tp162
Rp163
(I3
S'|'
p164
NNNI1
I1
I0
tp165
bg11
tp166
Rp167
ag4
(g5
(S'S1'
p168
I0
I1
tp169
Rp170
(I3
S'|'
p171
NNNI1
I1
I0
tp172
bg11
tp173
Rp174
ag4
(g5
(S'S1'
p175
I0
I1
tp176
Rp177
(I3
S'|'
p178
NNNI1
I1
I0
tp179
bg11
tp180
Rp181
ag4
(g5
(S'S1'
p182
I0
I1
tp183
Rp184
(I3
S'|'
p185
NNNI1
I1
I0
tp186
bg11
tp187
Rp188
ag4
(g5
(S'S1'
p189
I0
I1
tp190
Rp191
(I3
S'|'
p192
NNNI1
I1
I0
tp193
bg11
tp194
Rp195
ag4
(g5
(S'S1'
p196
I0
I1
tp197
Rp198
(I3
S'|'
p199
NNNI1
I1
I0
tp200
bg11
tp201
Rp202
ag4
(g5
(S'S1'
p203
I0
I1
tp204
Rp205
(I3
S'|'
p206
NNNI1
I1
I0
tp207
bg11
tp208
Rp209
ag4
(g5
(S'S1'
p210
I0
I1
tp211
Rp212
(I3
S'|'
p213
NNNI1
I1
I0
tp214
bg11
tp215
Rp216
ag4
(g5
(S'S1'
p217
I0
I1
tp218
Rp219
(I3
S'|'
p220
NNNI1
I1
I0
tp221
bg11
tp222
Rp223
ag4
(g5
(S'S1'
p224
I0
I1
tp225
Rp226
(I3
S'|'
p227
NNNI1
I1
I0
tp228
bg11
tp229
Rp230
ag4
(g5
(S'S1'
p231
I0
I1
tp232
Rp233
(I3
S'|'
p234
NNNI1
I1
I0
tp235
bg11
tp236
Rp237
ag4
(g5
(S'S1'
p238
I0
I1
tp239
Rp240
(I3
S'|'
p241
NNNI1
I1
I0
tp242
bg11
tp243
Rp244
ag4
(g5
(S'S1'
p245
I0
I1
tp246
Rp247
(I3
S'|'
p248
NNNI1
I1
I0
tp249
bg11
tp250
Rp251
ag4
(g5
(S'S1'
p252
I0
I1
tp253
Rp254
(I3
S'|'
p255
NNNI1
I1
I0
tp256
bg11
tp257
Rp258
ag4
(g5
(S'S1'
p259
I0
I1
tp260
Rp261
(I3
S'|'
p262
NNNI1
I1
I0
tp263
bg11
tp264
Rp265
ag4
(g5
(S'S1'
p266
I0
I1
tp267
Rp268
(I3
S'|'
p269
NNNI1
I1
I0
tp270
bg11
tp271
Rp272
ag4
(g5
(S'S1'
p273
I0
I1
tp274
Rp275
(I3
S'|'
p276
NNNI1
I1
I0
tp277
bg11
tp278
Rp279
ag4
(g5
(S'S1'
p280
I0
I1
tp281
Rp282
(I3
S'|'
p283
NNNI1
I1
I0
tp284
bg11
tp285
Rp286
ag4
(g5
(S'S1'
p287
I0
I1
tp288
Rp289
(I3
S'|'
p290
NNNI1
I1
I0
tp291
bg11
tp292
Rp293
ag4
(g5
(S'S1'
p294
I0
I1
tp295
Rp296
(I3
S'|'
p297
NNNI1
I1
I0
tp298
bg11
tp299
Rp300
ag4
(g5
(S'S1'
p301
I0
I1
tp302
Rp303
(I3
S'|'
p304
NNNI1
I1
I0
tp305
bg11
tp306
Rp307
ag4
(g5
(S'S1'
p308
I0
I1
tp309
Rp310
(I3
S'|'
p311
NNNI1
I1
I0
tp312
bg11
tp313
Rp314
ag4
(g5
(S'S1'
p315
I0
I1
tp316
Rp317
(I3
S'|'
p318
NNNI1
I1
I0
tp319
bg11
tp320
Rp321
ag4
(g5
(S'S1'
p322
I0
I1
tp323
Rp324
(I3
S'|'
p325
NNNI1
I1
I0
tp326
bg11
tp327
Rp328
ag4
(g5
(S'S1'
p329
I0
I1
tp330
Rp331
(I3
S'|'
p332
NNNI1
I1
I0
tp333
bg11
tp334
Rp335
ag4
(g5
(S'S1'
p336
I0
I1
tp337
Rp338
(I3
S'|'
p339
NNNI1
I1
I0
tp340
bg11
tp341
Rp342
ag4
(g5
(S'S1'
p343
I0
I1
tp344
Rp345
(I3
S'|'
p346
NNNI1
I1
I0
tp347
bg11
tp348
Rp349
ag4
(g5
(S'S1'
p350
I0
I1
tp351
Rp352
(I3
S'|'
p353
NNNI1
I1
I0
tp354
bg11
tp355
Rp356
ag4
(g5
(S'S1'
p357
I0
I1
tp358
Rp359
(I3
S'|'
p360
NNNI1
I1
I0
tp361
bg11
tp362
Rp363
ag4
(g5
(S'S1'
p364
I0
I1
tp365
Rp366
(I3
S'|'
p367
NNNI1
I1
I0
tp368
bg11
tp369
Rp370
ag4
(g5
(S'S1'
p371
I0
I1
tp372
Rp373
(I3
S'|'
p374
NNNI1
I1
I0
tp375
bg11
tp376
Rp377
ag4
(g5
(S'S1'
p378
I0
I1
tp379
Rp380
(I3
S'|'
p381
NNNI1
I1
I0
tp382
bg11
tp383
Rp384
ag4
(g5
(S'S1'
p385
I0
I1
tp386
Rp387
(I3
S'|'
p388
NNNI1
I1
I0
tp389
bg11
tp390
Rp391
ag4
(g5
(S'S1'
p392
I0
I1
tp393
Rp394
(I3
S'|'
p395
NNNI1
I1
I0
tp396
bg11
tp397
Rp398
ag4
(g5
(S'S1'
p399
I0
I1
tp400
Rp401
(I3
S'|'
p402
NNNI1
I1
I0
tp403
bg11
tp404
Rp405
ag4
(g5
(S'S1'
p406
I0
I1
tp407
Rp408
(I3
S'|'
p409
NNNI1
I1
I0
tp410
bg11
tp411
Rp412
ag4
(g5
(S'S1'
p413
I0
I1
tp414
Rp415
(I3
S'|'
p416
NNNI1
I1
I0
tp417
bg11
tp418
Rp419
ag4
(g5
(S'S1'
p420
I0
I1
tp421
Rp422
(I3
S'|'
p423
NNNI1
I1
I0
tp424
bg11
tp425
Rp426
ag4
(g5
(S'S1'
p427
I0
I1
tp428
Rp429
(I3
S'|'
p430
NNNI1
I1
I0
tp431
bg11
tp432
Rp433
ag4
(g5
(S'S1'
p434
I0
I1
tp435
Rp436
(I3
S'|'
p437
NNNI1
I1
I0
tp438
bg11
tp439
Rp440
ag4
(g5
(S'S1'
p441
I0
I1
tp442
Rp443
(I3
S'|'
p444
NNNI1
I1
I0
tp445
bg11
tp446
Rp447
ag4
(g5
(S'S1'
p448
I0
I1
tp449
Rp450
(I3
S'|'
p451
NNNI1
I1
I0
tp452
bg11
tp453
Rp454
ag4
(g5
(S'S1'
p455
I0
I1
tp456
Rp457
(I3
S'|'
p458
NNNI1
I1
I0
tp459
bg11
tp460
Rp461
ag4
(g5
(S'S1'
p462
I0
I1
tp463
Rp464
(I3
S'|'
p465
NNNI1
I1
I0
tp466
bg11
tp467
Rp468
ag4
(g5
(S'S1'
p469
I0
I1
tp470
Rp471
(I3
S'|'
p472
NNNI1
I1
I0
tp473
bg11
tp474
Rp475
ag4
(g5
(S'S1'
p476
I0
I1
tp477
Rp478
(I3
S'|'
p479
NNNI1
I1
I0
tp480
bg11
tp481
Rp482
ag4
(g5
(S'S1'
p483
I0
I1
tp484
Rp485
(I3
S'|'
p486
NNNI1
I1
I0
tp487
bg11
tp488
Rp489
ag4
(g5
(S'S1'
p490
I0
I1
tp491
Rp492
(I3
S'|'
p493
NNNI1
I1
I0
tp494
bg11
tp495
Rp496
ag4
(g5
(S'S1'
p497
I0
I1
tp498
Rp499
(I3
S'|'
p500
NNNI1
I1
I0
tp501
bg11
tp502
Rp503
ag4
(g5
(S'S1'
p504
I0
I1
tp505
Rp506
(I3
S'|'
p507
NNNI1
I1
I0
tp508
bg11
tp509
Rp510
ag4
(g5
(S'S1'
p511
I0
I1
tp512
Rp513
(I3
S'|'
p514
NNNI1
I1
I0
tp515
bg11
tp516
Rp517
ag4
(g5
(S'S1'
p518
I0
I1
tp519
Rp520
(I3
S'|'
p521
NNNI1
I1
I0
tp522
bg11
tp523
Rp524
ag4
(g5
(S'S1'
p525
I0
I1
tp526
Rp527
(I3
S'|'
p528
NNNI1
I1
I0
tp529
bg11
tp530
Rp531
ag4
(g5
(S'S1'
p532
I0
I1
tp533
Rp534
(I3
S'|'
p535
NNNI1
I1
I0
tp536
bg11
tp537
Rp538
ag4
(g5
(S'S1'
p539
I0
I1
tp540
Rp541
(I3
S'|'
p542
NNNI1
I1
I0
tp543
bg11
tp544
Rp545
ag4
(g5
(S'S1'
p546
I0
I1
tp547
Rp548
(I3
S'|'
p549
NNNI1
I1
I0
tp550
bg11
tp551
Rp552
ag4
(g5
(S'S1'
p553
I0
I1
tp554
Rp555
(I3
S'|'
p556
NNNI1
I1
I0
tp557
bg11
tp558
Rp559
ag4
(g5
(S'S1'
p560
I0
I1
tp561
Rp562
(I3
S'|'
p563
NNNI1
I1
I0
tp564
bg11
tp565
Rp566
ag4
(g5
(S'S1'
p567
I0
I1
tp568
Rp569
(I3
S'|'
p570
NNNI1
I1
I0
tp571
bg11
tp572
Rp573
ag4
(g5
(S'S1'
p574
I0
I1
tp575
Rp576
(I3
S'|'
p577
NNNI1
I1
I0
tp578
bg11
tp579
Rp580
ag4
(g5
(S'S1'
p581
I0
I1
tp582
Rp583
(I3
S'|'
p584
NNNI1
I1
I0
tp585
bg11
tp586
Rp587
ag4
(g5
(S'S1'
p588
I0
I1
tp589
Rp590
(I3
S'|'
p591
NNNI1
I1
I0
tp592
bg11
tp593
Rp594
ag4
(g5
(S'S1'
p595
I0
I1
tp596
Rp597
(I3
S'|'
p598
NNNI1
I1
I0
tp599
bg11
tp600
Rp601
ag4
(g5
(S'S1'
p602
I0
I1
tp603
Rp604
(I3
S'|'
p605
NNNI1
I1
I0
tp606
bg11
tp607
Rp608
ag4
(g5
(S'S1'
p609
I0
I1
tp610
Rp611
(I3
S'|'
p612
NNNI1
I1
I0
tp613
bg11
tp614
Rp615
ag4
(g5
(S'S1'
p616
I0
I1
tp617
Rp618
(I3
S'|'
p619
NNNI1
I1
I0
tp620
bg11
tp621
Rp622
ag4
(g5
(S'S1'
p623
I0
I1
tp624
Rp625
(I3
S'|'
p626
NNNI1
I1
I0
tp627
bg11
tp628
Rp629
ag4
(g5
(S'S1'
p630
I0
I1
tp631
Rp632
(I3
S'|'
p633
NNNI1
I1
I0
tp634
bg11
tp635
Rp636
ag4
(g5
(S'S1'
p637
I0
I1
tp638
Rp639
(I3
S'|'
p640
NNNI1
I1
I0
tp641
bg11
tp642
Rp643
ag4
(g5
(S'S1'
p644
I0
I1
tp645
Rp646
(I3
S'|'
p647
NNNI1
I1
I0
tp648
bg11
tp649
Rp650
ag4
(g5
(S'S1'
p651
I0
I1
tp652
Rp653
(I3
S'|'
p654
NNNI1
I1
I0
tp655
bg11
tp656
Rp657
ag4
(g5
(S'S1'
p658
I0
I1
tp659
Rp660
(I3
S'|'
p661
NNNI1
I1
I0
tp662
bg11
tp663
Rp664
ag4
(g5
(S'S1'
p665
I0
I1
tp666
Rp667
(I3
S'|'
p668
NNNI1
I1
I0
tp669
bg11
tp670
Rp671
ag4
(g5
(S'S1'
p672
I0
I1
tp673
Rp674
(I3
S'|'
p675
NNNI1
I1
I0
tp676
bg11
tp677
Rp678
ag4
(g5
(S'S1'
p679
I0
I1
tp680
Rp681
(I3
S'|'
p682
NNNI1
I1
I0
tp683
bg11
tp684
Rp685
ag4
(g5
(S'S1'
p686
I0
I1
tp687
Rp688
(I3
S'|'
p689
NNNI1
I1
I0
tp690
bg11
tp691
Rp692
ag4
(g5
(S'S1'
p693
I0
I1
tp694
Rp695
(I3
S'|'
p696
NNNI1
I1
I0
tp697
bg11
tp698
Rp699
ag4
(g5
(S'S1'
p700
I0
I1
tp701
Rp702
(I3
S'|'
p703
NNNI1
I1
I0
tp704
bg11
tp705
Rp706
asS'dt_skeleton'
p707
(lp708
(lp709
g13
ag4
(g5
(S'f8'
p710
I0
I1
tp711
Rp712
(I3
S'<'
p713
NNNI-1
I-1
I0
tp714
bS'\x00\x00\x00\x00\x00\x00\x00\x00'
p715
tp716
Rp717
aa(lp718
g11
ag4
(g712
S'\x00\x00\x00\x00\x00\x00\x00\x00'
p719
tp720
Rp721
aa(lp722
g11
ag4
(g712
S'\x00\x00\x00\x00\x00\x00\x00\x00'
p723
tp724
Rp725
aa(lp726
g11
ag4
(g712
S'\x00\x00\x00\x00\x00\x00\x00\x00'
p727
tp728
Rp729
aa(lp730
g11
ag4
(g712
S'\x00\x00\x00\x00\x00\x00\x00\x00'
p731
tp732
Rp733
aa(lp734
g11
ag4
(g712
S'\x00\x00\x00\x00\x00\x00\x00\x00'
p735
tp736
Rp737
aa(lp738
g11
ag4
(g712
S'\x00\x00\x00\x00\x00\x00\x00\x00'
p739
tp740
Rp741
aa(lp742
g11
ag4
(g712
S'\x00\x00\x00\x00\x00\x00\x00\x00'
p743
tp744
Rp745
aa(lp746
g11
ag4
(g712
S'\x00\x00\x00\x00\x00\x00\x00\x00'
p747
tp748
Rp749
aa(lp750
g11
ag4
(g712
S'\x00\x00\x00\x00\x00\x00\x00\x00'
p751
tp752
Rp753
aa(lp754
g11
ag4
(g712
S'\xd0\x13nB\xcdI6?'
p755
tp756
Rp757
aa(lp758
g11
ag4
(g712
S'\xe2\x98\xdbW\xf7<7?'
p759
tp760
Rp761
aa(lp762
g20
ag4
(g712
S'\xfc\xa9\xf1\xd2MbP?'
p763
tp764
Rp765
aa(lp766
g27
ag4
(g712
S'\xfc\xa9\xf1\xd2Mb`?'
p767
tp768
Rp769
aa(lp770
g34
ag4
(g712
S'\xfa~j\xbct\x93h?'
p771
tp772
Rp773
aa(lp774
g11
ag4
(g712
S'm\xd5\n\x08\x00Ai?'
p775
tp776
Rp777
aa(lp778
g41
ag4
(g712
S'\xfc\xa9\xf1\xd2Mbp?'
p779
tp780
Rp781
aa(lp782
g48
ag4
(g712
S'{\x14\xaeG\xe1zt?'
p783
tp784
Rp785
aa(lp786
g11
ag4
(g712
S'\xae_\xb8)\x06|x?'
p787
tp788
Rp789
aa(lp790
g55
ag4
(g712
S'\xfa~j\xbct\x93x?'
p791
tp792
Rp793
aa(lp794
g62
ag4
(g712
S'y\xe9&1\x08\xac|?'
p795
tp796
Rp797
aa(lp798
g69
ag4
(g712
S'\xfc\xa9\xf1\xd2Mb\x80?'
p799
tp800
Rp801
aa(lp802
g76
ag4
(g712
S'<\xdfO\x8d\x97n\x82?'
p803
tp804
Rp805
aa(lp806
g11
ag4
(g712
S"'/\xfb\x0e|\xb3\x83?"
p807
tp808
Rp809
aa(lp810
g11
ag4
(g712
S'\xb1\xc9]K\x9f\xdb\x83?'
p811
tp812
Rp813
aa(lp814
g83
ag4
(g712
S'{\x14\xaeG\xe1z\x84?'
p815
tp816
Rp817
aa(lp818
g11
ag4
(g712
S'M7\x04\x7fy\x89\x84?'
p819
tp820
Rp821
aa(lp822
g90
ag4
(g712
S'\xbaI\x0c\x02+\x87\x86?'
p823
tp824
Rp825
aa(lp826
g97
ag4
(g712
S'\xfa~j\xbct\x93\x88?'
p827
tp828
Rp829
aa(lp830
g104
ag4
(g712
S':\xb4\xc8v\xbe\x9f\x8a?'
p831
tp832
Rp833
aa(lp834
g111
ag4
(g712
S'y\xe9&1\x08\xac\x8c?'
p835
tp836
Rp837
aa(lp838
g118
ag4
(g712
S'\xb8\x1e\x85\xebQ\xb8\x8e?'
p839
tp840
Rp841
aa(lp842
g125
ag4
(g712
S'\xfc\xa9\xf1\xd2Mb\x90?'
p843
tp844
Rp845
aa(lp846
g11
ag4
(g712
S'\x1f\x04\x83<\x8a\xaa\x90?'
p847
tp848
Rp849
aa(lp850
g132
ag4
(g712
S'\x9c\xc4 \xb0rh\x91?'
p851
tp852
Rp853
aa(lp854
g139
ag4
(g712
S'<\xdfO\x8d\x97n\x92?'
p855
tp856
Rp857
aa(lp858
g146
ag4
(g712
S'\xdb\xf9~j\xbct\x93?'
p859
tp860
Rp861
aa(lp862
g11
ag4
(g712
S'E\r\x94\xf1D9\x94?'
p863
tp864
Rp865
aa(lp866
g153
ag4
(g712
S'{\x14\xaeG\xe1z\x94?'
p867
tp868
Rp869
aa(lp870
g160
ag4
(g712
S'\x1b/\xdd$\x06\x81\x95?'
p871
tp872
Rp873
aa(lp874
g167
ag4
(g712
S'\xbaI\x0c\x02+\x87\x96?'
p875
tp876
Rp877
aa(lp878
g174
ag4
(g712
S'Zd;\xdfO\x8d\x97?'
p879
tp880
Rp881
aa(lp882
g181
ag4
(g712
S'\xfa~j\xbct\x93\x98?'
p883
tp884
Rp885
aa(lp886
g188
ag4
(g712
S'\x9a\x99\x99\x99\x99\x99\x99?'
p887
tp888
Rp889
aa(lp890
g11
ag4
(g712
S'J\xc5\x1e;\xf6L\x9a?'
p891
tp892
Rp893
aa(lp894
g195
ag4
(g712
S':\xb4\xc8v\xbe\x9f\x9a?'
p895
tp896
Rp897
aa(lp898
g11
ag4
(g712
S')S\x8a\x87\x86+\x9b?'
p899
tp900
Rp901
aa(lp902
g202
ag4
(g712
S'\xd9\xce\xf7S\xe3\xa5\x9b?'
p903
tp904
Rp905
aa(lp906
g209
ag4
(g712
S'y\xe9&1\x08\xac\x9c?'
p907
tp908
Rp909
aa(lp910
g11
ag4
(g712
S'L\x1e \xe3\x7f\xb4\x9c?'
p911
tp912
Rp913
aa(lp914
g11
ag4
(g712
S'\x1d\x92)*\xbf\x8b\x9d?'
p915
tp916
Rp917
aa(lp918
g216
ag4
(g712
S'\x19\x04V\x0e-\xb2\x9d?'
p919
tp920
Rp921
aa(lp922
g223
ag4
(g712
S'\xb8\x1e\x85\xebQ\xb8\x9e?'
p923
tp924
Rp925
aa(lp926
g11
ag4
(g712
S'b\xe3\xd4}+\x11\x9f?'
p927
tp928
Rp929
aa(lp930
g230
ag4
(g712
S'X9\xb4\xc8v\xbe\x9f?'
p931
tp932
Rp933
aa(lp934
g237
ag4
(g712
S'\xfc\xa9\xf1\xd2Mb\xa0?'
p935
tp936
Rp937
aa(lp938
g244
ag4
(g712
S'L7\x89A`\xe5\xa0?'
p939
tp940
Rp941
aa(lp942
g11
ag4
(g712
S'\x89\x02?\xbf\x16&\xa1?'
p943
tp944
Rp945
aa(lp946
g251
ag4
(g712
S'\x9c\xc4 \xb0rh\xa1?'
p947
tp948
Rp949
aa(lp950
g258
ag4
(g712
S'\xecQ\xb8\x1e\x85\xeb\xa1?'
p951
tp952
Rp953
aa(lp954
g265
ag4
(g712
S'<\xdfO\x8d\x97n\xa2?'
p955
tp956
Rp957
aa(lp958
g272
ag4
(g712
S'\x8bl\xe7\xfb\xa9\xf1\xa2?'
p959
tp960
Rp961
aa(lp962
g11
ag4
(g712
S'-V9J\xd7#\xa3?'
p963
tp964
Rp965
aa(lp966
g279
ag4
(g712
S'\xdb\xf9~j\xbct\xa3?'
p967
tp968
Rp969
aa(lp970
g286
ag4
(g712
S'+\x87\x16\xd9\xce\xf7\xa3?'
p971
tp972
Rp973
aa(lp974
g293
ag4
(g712
S'{\x14\xaeG\xe1z\xa4?'
p975
tp976
Rp977
aa(lp978
g300
ag4
(g712
S'\xcb\xa1E\xb6\xf3\xfd\xa4?'
p979
tp980
Rp981
aa(lp982
g307
ag4
(g712
S'\x1b/\xdd$\x06\x81\xa5?'
p983
tp984
Rp985
aa(lp986
g314
ag4
(g712
S'k\xbct\x93\x18\x04\xa6?'
p987
tp988
Rp989
aa(lp990
g321
ag4
(g712
S'\xbaI\x0c\x02+\x87\xa6?'
p991
tp992
Rp993
aa(lp994
g328
ag4
(g712
S'\n\xd7\xa3p=\n\xa7?'
p995
tp996
Rp997
aa(lp998
g335
ag4
(g712
S'Zd;\xdfO\x8d\xa7?'
p999
tp1000
Rp1001
aa(lp1002
g342
ag4
(g712
S'\xaa\xf1\xd2Mb\x10\xa8?'
p1003
tp1004
Rp1005
aa(lp1006
g11
ag4
(g712
S'H*\x01$\xfc}\xa8?'
p1007
tp1008
Rp1009
aa(lp1010
g349
ag4
(g712
S'\xfa~j\xbct\x93\xa8?'
p1011
tp1012
Rp1013
aa(lp1014
g11
ag4
(g712
S'\xd8 \xcdE\xe6\xa9\xa8?'
p1015
tp1016
Rp1017
aa(lp1018
g356
ag4
(g712
S'J\x0c\x02+\x87\x16\xa9?'
p1019
tp1020
Rp1021
aa(lp1022
g363
ag4
(g712
S'\x9a\x99\x99\x99\x99\x99\xa9?'
p1023
tp1024
Rp1025
aa(lp1026
g370
ag4
(g712
S'\xea&1\x08\xac\x1c\xaa?'
p1027
tp1028
Rp1029
aa(lp1030
g377
ag4
(g712
S':\xb4\xc8v\xbe\x9f\xaa?'
p1031
tp1032
Rp1033
aa(lp1034
g384
ag4
(g712
S'\x89A`\xe5\xd0"\xab?'
p1035
tp1036
Rp1037
aa(lp1038
g11
ag4
(g712
S'\xfe o\xd6\x8f\x94\xab?'
p1039
tp1040
Rp1041
aa(lp1042
g11
ag4
(g712
S'^\xad\xb9\xa0m\x9f\xab?'
p1043
tp1044
Rp1045
aa(lp1046
g391
ag4
(g712
S'\xd9\xce\xf7S\xe3\xa5\xab?'
p1047
tp1048
Rp1049
aa(lp1050
g398
ag4
(g712
S')\\\x8f\xc2\xf5(\xac?'
p1051
tp1052
Rp1053
aa(lp1054
g405
ag4
(g712
S'y\xe9&1\x08\xac\xac?'
p1055
tp1056
Rp1057
aa(lp1058
g11
ag4
(g712
S'&\x95\xc6\xee\xe1\xd0\xac?'
p1059
tp1060
Rp1061
aa(lp1062
g412
ag4
(g712
S'\xc9v\xbe\x9f\x1a/\xad?'
p1063
tp1064
Rp1065
aa(lp1066
g419
ag4
(g712
S'\x19\x04V\x0e-\xb2\xad?'
p1067
tp1068
Rp1069
aa(lp1070
g426
ag4
(g712
S'i\x91\xed|?5\xae?'
p1071
tp1072
Rp1073
aa(lp1074
g433
ag4
(g712
S'\xb8\x1e\x85\xebQ\xb8\xae?'
p1075
tp1076
Rp1077
aa(lp1078
g11
ag4
(g712
S'L9\x92\xb8\xca\xf1\xae?'
p1079
tp1080
Rp1081
aa(lp1082
g440
ag4
(g712
S'\x08\xac\x1cZd;\xaf?'
p1083
tp1084
Rp1085
aa(lp1086
g11
ag4
(g712
S'\xa5\xca\x89\x9c\x1aV\xaf?'
p1087
tp1088
Rp1089
aa(lp1090
g447
ag4
(g712
S'X9\xb4\xc8v\xbe\xaf?'
p1091
tp1092
Rp1093
aa(lp1094
g11
ag4
(g712
S'\xe0*r\x12Q\xfd\xaf?'
p1095
tp1096
Rp1097
aa(lp1098
g454
ag4
(g712
S'T\xe3\xa5\x9b\xc4 \xb0?'
p1099
tp1100
Rp1101
aa(lp1102
g461
ag4
(g712
S'\xfc\xa9\xf1\xd2Mb\xb0?'
p1103
tp1104
Rp1105
aa(lp1106
g11
ag4
(g712
S'\x15e\xac\xbea\x90\xb0?'
p1107
tp1108
Rp1109
aa(lp1110
g468
ag4
(g712
S'\xa4p=\n\xd7\xa3\xb0?'
p1111
tp1112
Rp1113
aa(lp1114
g475
ag4
(g712
S'L7\x89A`\xe5\xb0?'
p1115
tp1116
Rp1117
aa(lp1118
g482
ag4
(g712
S'\xf4\xfd\xd4x\xe9&\xb1?'
p1119
tp1120
Rp1121
aa(lp1122
g489
ag4
(g712
S'\x9c\xc4 \xb0rh\xb1?'
p1123
tp1124
Rp1125
aa(lp1126
g496
ag4
(g712
S'D\x8bl\xe7\xfb\xa9\xb1?'
p1127
tp1128
Rp1129
aa(lp1130
g503
ag4
(g712
S'\xecQ\xb8\x1e\x85\xeb\xb1?'
p1131
tp1132
Rp1133
aa(lp1134
g510
ag4
(g712
S'\x94\x18\x04V\x0e-\xb2?'
p1135
tp1136
Rp1137
aa(lp1138
g11
ag4
(g712
S'{3\xde\x07gm\xb2?'
p1139
tp1140
Rp1141
aa(lp1142
g517
ag4
(g712
S'<\xdfO\x8d\x97n\xb2?'
p1143
tp1144
Rp1145
aa(lp1146
g524
ag4
(g712
S'\xe3\xa5\x9b\xc4 \xb0\xb2?'
p1147
tp1148
Rp1149
aa(lp1150
g531
ag4
(g712
S'\x8bl\xe7\xfb\xa9\xf1\xb2?'
p1151
tp1152
Rp1153
aa(lp1154
g538
ag4
(g712
S'333333\xb3?'
p1155
tp1156
Rp1157
aa(lp1158
g11
ag4
(g712
S'\xce\x04\x87;\xd0N\xb3?'
p1159
tp1160
Rp1161
aa(lp1162
g11
ag4
(g712
S'4&\xa5S\x9eh\xb3?'
p1163
tp1164
Rp1165
aa(lp1166
g545
ag4
(g712
S'\xdb\xf9~j\xbct\xb3?'
p1167
tp1168
Rp1169
aa(lp1170
g552
ag4
(g712
S'\x83\xc0\xca\xa1E\xb6\xb3?'
p1171
tp1172
Rp1173
aa(lp1174
g559
ag4
(g712
S'+\x87\x16\xd9\xce\xf7\xb3?'
p1175
tp1176
Rp1177
aa(lp1178
g566
ag4
(g712
S'\xd3Mb\x10X9\xb4?'
p1179
tp1180
Rp1181
aa(lp1182
g11
ag4
(g712
S'\xadU\xb3\x08\xeff\xb4?'
p1183
tp1184
Rp1185
aa(lp1186
g573
ag4
(g712
S'{\x14\xaeG\xe1z\xb4?'
p1187
tp1188
Rp1189
aa(lp1190
g11
ag4
(g712
S'\xd3\xd1K^\n\xa8\xb4?'
p1191
tp1192
Rp1193
aa(lp1194
g580
ag4
(g712
S'#\xdb\xf9~j\xbc\xb4?'
p1195
tp1196
Rp1197
aa(lp1198
g11
ag4
(g712
S'f\xfft\xaa\xb1\xd8\xb4?'
p1199
tp1200
Rp1201
aa(lp1202
g587
ag4
(g712
S'\xcb\xa1E\xb6\xf3\xfd\xb4?'
p1203
tp1204
Rp1205
aa(lp1206
g11
ag4
(g712
S'\xad\xb9\xa8a\xda\x1c\xb5?'
p1207
tp1208
Rp1209
aa(lp1210
g11
ag4
(g712
S'\xd0\x83(8k)\xb5?'
p1211
tp1212
Rp1213
aa(lp1214
g594
ag4
(g712
S'sh\x91\xed|?\xb5?'
p1215
tp1216
Rp1217
aa(lp1218
g11
ag4
(g712
S'\xadTK\x1c\x84c\xb5?'
p1219
tp1220
Rp1221
aa(lp1222
g601
ag4
(g712
S'\x1b/\xdd$\x06\x81\xb5?'
p1223
tp1224
Rp1225
aa(lp1226
g608
ag4
(g712
S'\xc3\xf5(\\\x8f\xc2\xb5?'
p1227
tp1228
Rp1229
aa(lp1230
g615
ag4
(g712
S'k\xbct\x93\x18\x04\xb6?'
p1231
tp1232
Rp1233
aa(lp1234
g622
ag4
(g712
S'\x13\x83\xc0\xca\xa1E\xb6?'
p1235
tp1236
Rp1237
aa(lp1238
g629
ag4
(g712
S'\xbaI\x0c\x02+\x87\xb6?'
p1239
tp1240
Rp1241
aa(lp1242
g636
ag4
(g712
S'b\x10X9\xb4\xc8\xb6?'
p1243
tp1244
Rp1245
aa(lp1246
g11
ag4
(g712
S'\xaabii3\xdd\xb6?'
p1247
tp1248
Rp1249
aa(lp1250
g643
ag4
(g712
S'\n\xd7\xa3p=\n\xb7?'
p1251
tp1252
Rp1253
aa(lp1254
g650
ag4
(g712
S'\xb2\x9d\xef\xa7\xc6K\xb7?'
p1255
tp1256
Rp1257
aa(lp1258
g657
ag4
(g712
S'Zd;\xdfO\x8d\xb7?'
p1259
tp1260
Rp1261
aa(lp1262
g11
ag4
(g712
S'[\xcd\x893\xf6\x9f\xb7?'
p1263
tp1264
Rp1265
aa(lp1266
g664
ag4
(g712
S'\x02+\x87\x16\xd9\xce\xb7?'
p1267
tp1268
Rp1269
aa(lp1270
g11
ag4
(g712
S'*\xef#&\xad\xe1\xb7?'
p1271
tp1272
Rp1273
aa(lp1274
g671
ag4
(g712
S'\xaa\xf1\xd2Mb\x10\xb8?'
p1275
tp1276
Rp1277
aa(lp1278
g11
ag4
(g712
S'p\x16A\xeb\xa38\xb8?'
p1279
tp1280
Rp1281
aa(lp1282
g11
ag4
(g712
S'\xfc\xbc\x01\x12\xa2P\xb8?'
p1283
tp1284
Rp1285
aa(lp1286
g678
ag4
(g712
S'R\xb8\x1e\x85\xebQ\xb8?'
p1287
tp1288
Rp1289
aa(lp1290
g685
ag4
(g712
S'\xfa~j\xbct\x93\xb8?'
p1291
tp1292
Rp1293
aa(lp1294
g692
ag4
(g712
S'\xa2E\xb6\xf3\xfd\xd4\xb8?'
p1295
tp1296
Rp1297
aa(lp1298
g699
ag4
(g712
S'J\x0c\x02+\x87\x16\xb9?'
p1299
tp1300
Rp1301
aasS'like_comps'
p1302
(lp1303
g4
(g712
S'?g\x9c$w\xa3=*'
p1304
tp1305
Rp1306
ag4
(g712
S'$-\xa6\xa3=L3='
p1307
tp1308
Rp1309
ag4
(g712
S'\x12\xf8\xf3\xc6\xaf_\xa0A'
p1310
tp1311
Rp1312
asS'obs_times'
p1313
(lp1314
g717
ag765
ag769
ag773
ag781
ag785
ag793
ag797
ag801
ag805
ag817
ag825
ag829
ag833
ag837
ag841
ag845
ag853
ag857
ag861
ag869
ag873
ag877
ag881
ag885
ag889
ag897
ag905
ag909
ag921
ag925
ag933
ag937
ag941
ag949
ag953
ag957
ag961
ag969
ag973
ag977
ag981
ag985
ag989
ag993
ag997
ag1001
ag1005
ag1013
ag1021
ag1025
ag1029
ag1033
ag1037
ag1049
ag1053
ag1057
ag1065
ag1069
ag1073
ag1077
ag1085
ag1093
ag1101
ag1105
ag1113
ag1117
ag1121
ag1125
ag1129
ag1133
ag1137
ag1145
ag1149
ag1153
ag1157
ag1169
ag1173
ag1177
ag1181
ag1189
ag1197
ag1205
ag1217
ag1225
ag1229
ag1233
ag1237
ag1241
ag1245
ag1253
ag1257
ag1261
ag1269
ag1277
ag1289
ag1293
ag1297
ag1301
ag4
(g712
S'\xf2\xd2Mb\x10X\xb9?'
p1315
tp1316
Rp1317
asS'f_vecs'
p1318
(lp1319
(lp1320
F0.9
aF0.1
aF0.0
aa(cnumpy.core.multiarray
_reconstruct
p1321
(cnumpy
ndarray
p1322
(I0
tp1323
S'b'
p1324
tp1325
Rp1326
(I1
(I3
tp1327
g712
I00
S'\xd5\xad\xe4 \\\\\xeb?\x03\xf0miG\x88\xc2?\x82\x9bb\xfdK )?'
p1328
tp1329
bg4
(g712
S'\xe2\xd3\xa8\xf6w\xfd\xb3?'
p1330
tp1331
Rp1332
tp1333
a(g1321
(g1322
(I0
tp1334
g1324
tp1335
Rp1336
(I1
(I3
tp1337
g712
I00
S']P\xcf\x18\xbc\x1f\xec?\xfc\xa7\x19\xf9\x85\xe1\xbe?]\x8b\xea5\xa0L@?'
p1338
tp1339
bg4
(g712
S'\xe7\xa9R\x85\xce\x88\x8b?'
p1340
tp1341
Rp1342
tp1343
a(g1321
(g1322
(I0
tp1344
g1324
tp1345
Rp1346
(I1
(I3
tp1347
g712
I00
S'd\x06=\xde\xe4\xf6\xeb?\xccJ\xdd\x8a?\x0c\xc0?$\xa2\x9b.\xfc,H?'
p1348
tp1349
bg4
(g712
S'9\x8f\xd9Y\x1ceh?'
p1350
tp1351
Rp1352
tp1353
a(g1321
(g1322
(I0
tp1354
g1324
tp1355
Rp1356
(I1
(I3
tp1357
g712
I00
S'\x04\xb3\xd8\xd8S\xcd\xeb?\xc3\x1b\xee=\\\xaa\xc0?s\x19\x8cW/*P?'
p1358
tp1359
bg4
(g712
S'\x00\x12\xc9\xa3\xcb\x9dE?'
p1360
tp1361
Rp1362
tp1363
a(g1321
(g1322
(I0
tp1364
g1324
tp1365
Rp1366
(I1
(I3
tp1367
g712
I00
S"\xd0\x146@\xa8\x90\xec?\xd8\x1d\xb81s&\xbb?'\xeb\xce%\xb3\x12U?"
p1368
tp1369
bg4
(g712
S'U\x91q\xf8?\xd3\x17?'
p1370
tp1371
Rp1372
tp1373
a(g1321
(g1322
(I0
tp1374
g1324
tp1375
Rp1376
(I1
(I3
tp1377
g712
I00
S'W\xf2\x90\xdflL\xe8?\xb3\x10K\x9aa\xa4\xce?G\xf9\x92\xb8s\xf5T?'
p1378
tp1379
bg4
(g712
S'\x8c\x90%\x926\xd2\x91>'
p1380
tp1381
Rp1382
tp1383
a(g1321
(g1322
(I0
tp1384
g1324
tp1385
Rp1386
(I1
(I3
tp1387
g712
I00
S'w+\xe7R\x1c\x1f\xe7?\xaa}f\xacF\xa6\xd1?ah+\xcb\xad\x80[?'
p1388
tp1389
bg4
(g712
S'#\xdd{\xa8)\x9ac>'
p1390
tp1391
Rp1392
tp1393
a(g1321
(g1322
(I0
tp1394
g1324
tp1395
Rp1396
(I1
(I3
tp1397
g712
I00
S'\xaa\xe2\x02\x1d\xa1!\xe8?\x9f\x0c\xa3\xef\xf7,\xcf?\x9f-Z\x14\xe7 c?'
p1398
tp1399
bg4
(g712
S'\xbf\x975\xa5\xf8\xa4;>'
p1400
tp1401
Rp1402
tp1403
a(g1321
(g1322
(I0
tp1404
g1324
tp1405
Rp1406
(I1
(I3
tp1407
g712
I00
S'\x8a\x156\x97\xbd\xf1\xe6?*\xea\xfb\xfbj\xf0\xd1?\xf4`\xf5\xcb\xea\x0cf?'
p1408
tp1409
bg4
(g712
S'vN\x8e\xcfgn\x0e>'
p1410
tp1411
Rp1412
tp1413
a(g1321
(g1322
(I0
tp1414
g1324
tp1415
Rp1416
(I1
(I3
tp1417
g712
I00
S'OB\xb8\xbf!\xaa\xe5?`A\x05}Ey\xd4?\xd6\x02\x1d\xc5\x81;i?'
p1418
tp1419
bg4
(g712
S'\x9bJ\x95\xdc\xc6\xdd\xe0='
p1420
tp1421
Rp1422
tp1423
a(g1321
(g1322
(I0
tp1424
g1324
tp1425
Rp1426
(I1
(I3
tp1427
g712
I00
S'\xf2\xbf\xbeq;\x15\xe7?\x1f\x07s\xe9`\x94\xd1?Q?\xde\xc3\x0cJp?'
p1428
tp1429
bg4
(g712
S'\x87N:\x91\xb9\x01\xb0='
p1430
tp1431
Rp1432
tp1433
a(g1321
(g1322
(I0
tp1434
g1324
tp1435
Rp1436
(I1
(I3
tp1437
g712
I00
S'z\xc6\xca\xd6)\x01\xe8?\x1a>k\x01\x8e`\xcf?V\xff4mTYs?'
p1438
tp1439
bg4
(g712
S'(\xf45\xf9\x05\xeb\x83='
p1440
tp1441
Rp1442
tp1443
a(g1321
(g1322
(I0
tp1444
g1324
tp1445
Rp1446
(I1
(I3
tp1447
g712
I00
S"\xd14\xd25\xf5\x7f\xe5?\xf4'\xab\xe8K\xb3\xd4?\xeb\x99\x1b\xecj2s?"
p1448
tp1449
bg4
(g712
S'\xa0\xf4fBa\xca;='
p1450
tp1451
Rp1452
tp1453
a(g1321
(g1322
(I0
tp1454
g1324
tp1455
Rp1456
(I1
(I3
tp1457
g712
I00
S'\x1b\xb5{H\x8b\x8a\xe4?|\xad\x17z!\x97\xd6?\xa1\x13:<\xfd\xf1t?'
p1458
tp1459
bg4
(g712
S"\xcbk5\xe8'n\x10="
p1460
tp1461
Rp1462
tp1463
a(g1321
(g1322
(I0
tp1464
g1324
tp1465
Rp1466
(I1
(I3
tp1467
g712
I00
S'\x04\xef\xb61\xdcT\xe4?:\r\xd3\xd7\x94\xf7\xd6?\xa5/\xc5/\xb1\xacw?'
p1468
tp1469
bg4
(g712
S'v\x88=|\x05\x01\xe9<'
p1470
tp1471
Rp1472
tp1473
a(g1321
(g1322
(I0
tp1474
g1324
tp1475
Rp1476
(I1
(I3
tp1477
g712
I00
S'\xaa\xda[-\x8f\xf8\xe5?\x8d\x1d\xa0\x96r\x9b\xd3?\xa0G\x0b\xaa\xc3\xdb|?'
p1478
tp1479
bg4
(g712
S'\x06\x0e\x14\x10\xac\xb6\xb2<'
p1480
tp1481
Rp1482
tp1483
a(g1321
(g1322
(I0
tp1484
g1324
tp1485
Rp1486
(I1
(I3
tp1487
g712
I00
S'\xc1\xbe\x02\xc6w\t\xe5?\xf9\xc6\xa3\xe8\x83t\xd5?)\xe1\xae\xd5"#~?'
p1488
tp1489
bg4
(g712
S'\xa8\xfdp\x8e]\x14\x86<'
p1490
tp1491
Rp1492
tp1493
a(g1321
(g1322
(I0
tp1494
g1324
tp1495
Rp1496
(I1
(I3
tp1497
g712
I00
S'\xe7\xf2\xf0\xe9^j\xe4?\xc8\xae\xff\x8b&\xab\xd6?6m\xcd\x03t\x03\x80?'
p1498
tp1499
bg4
(g712
S'\xc9\xbe\xcb>\xc7\x1f]<'
p1500
tp1501
Rp1502
tp1503
a(g1321
(g1322
(I0
tp1504
g1324
tp1505
Rp1506
(I1
(I3
tp1507
g712
I00
S'\xa8x\xd9\\\xb5\x18\xe5?Pb\x88"\xb1=\xd5?1\x8c\x95x\x84\x1c\x82?'
p1508
tp1509
bg4
(g712
S'\x97\xccZ\x84\xaf\xa94<'
p1510
tp1511
Rp1512
tp1513
a(g1321
(g1322
(I0
tp1514
g1324
tp1515
Rp1516
(I1
(I3
tp1517
g712
I00
S'\x8f\xdf\xec\x9cx\xc2\xe6?\x94\x1f\xbd>i\xd2\xd1?^)$\xed\xb0\x14\x85?'
p1518
tp1519
bg4
(g712
S'<\x83\x01\xa5\x97M\xf8;'
p1520
tp1521
Rp1522
tp1523
a(g1321
(g1322
(I0
tp1524
g1324
tp1525
Rp1526
(I1
(I3
tp1527
g712
I00
S'd\x10\xc3!\xecr\xe6?Z\x97\x8eg%j\xd2? \xfch\x9dJ\x00\x86?'
p1528
tp1529
bg4
(g712
S'\x99\xe1\xae\xa2P\x07\xd1;'
p1530
tp1531
Rp1532
tp1533
a(g1321
(g1322
(I0
tp1534
g1324
tp1535
Rp1536
(I1
(I3
tp1537
g712
I00
S'\x12\x1d\xba\x82{f\xe8?\xda\x8f.\xe0n\xd1\xcc?\xc1\xbd\x8fN1J\x89?'
p1538
tp1539
bg4
(g712
S'\x00\xf8\x03%3\x88x;'
p1540
tp1541
Rp1542
tp1543
a(g1321
(g1322
(I0
tp1544
g1324
tp1545
Rp1546
(I1
(I3
tp1547
g712
I00
S'\x17\xc39$`\xb7\xe9?\x9fb\x8f0\xd0f\xc7?\x13\x10\x99\xe8\xf3\xba\x8b?'
p1548
tp1549
bg4
(g712
S'\xbdz\xbaB\xb5\xc76;'
p1550
tp1551
Rp1552
tp1553
a(g1321
(g1322
(I0
tp1554
g1324
tp1555
Rp1556
(I1
(I3
tp1557
g712
I00
S'\xe5\xc5\x03G\xcf\xf9\xe8?gS\x08\r\x8a\\\xca?\xfeO\x89n\x8d\xc3\x8b?'
p1558
tp1559
bg4
(g712
S'$\xfc\x85o\xe8\x03\x08;'
p1560
tp1561
Rp1562
tp1563
a(g1321
(g1322
(I0
tp1564
g1324
tp1565
Rp1566
(I1
(I3
tp1567
g712
I00
S'\xa8~\x95Q\xee\xb2\xe8?~\xed\xb1\xc2\xebm\xcb?%~\x81o\xafe\x8c?'
p1568
tp1569
bg4
(g712
S'\x072u\x99\x80\xc8\xe0:'
p1570
tp1571
Rp1572
tp1573
a(g1321
(g1322
(I0
tp1574
g1324
tp1575
Rp1576
(I1
(I3
tp1577
g712
I00
S'\xc6\xe9\x8e\xd0 D\xe7?"+\x0faL\x9a\xd0?\\*`\xba?\xae\x8b?'
p1578
tp1579
bg4
(g712
S's\xe5I?\xf0\xe3\xa5:'
p1580
tp1581
Rp1582
tp1583
a(g1321
(g1322
(I0
tp1584
g1324
tp1585
Rp1586
(I1
(I3
tp1587
g712
I00
S'~\xabyt\xad\xa3\xe6?\xb2\x8d3y\x01\xd8\xd1?vj#\xbbs\x14\x8c?'
p1588
tp1589
bg4
(g712
S'd\xf9\xf9~\xb0@z:'
p1590
tp1591
Rp1592
tp1593
a(g1321
(g1322
(I0
tp1594
g1324
tp1595
Rp1596
(I1
(I3
tp1597
g712
I00
S'~\xe2F\xe4\x19\x7f\xe7?\x84\xa2\xd7<6\x0e\xd0?\x1d\x10SS\xbfr\x8e?'
p1598
tp1599
bg4
(g712
S'\xb8\xed!\xe5\xb4BM:'
p1600
tp1601
Rp1602
tp1603
a(g1321
(g1322
(I0
tp1604
g1324
tp1605
Rp1606
(I1
(I3
tp1607
g712
I00
S'\x805\xb0h|\xe1\xe6?\xf9\xe4v\x8b\xd9F\xd1?&\x01\x16e\xb4\xc5\x8e?'
p1608
tp1609
bg4
(g712
S'\xb4\xdf\xb8_U\x88!:'
p1610
tp1611
Rp1612
tp1613
a(g1321
(g1322
(I0
tp1614
g1324
tp1615
Rp1616
(I1
(I3
tp1617
g712
I00
S'\xad\xf4\x8b\xd7\xf6\xd9\xe8?`A\x81f\xbfk\xca?A_w\xda)c\x91?'
p1618
tp1619
bg4
(g712
S'N_Z\xa4\x7f\xc9\xb19'
p1620
tp1621
Rp1622
tp1623
a(g1321
(g1322
(I0
tp1624
g1324
tp1625
Rp1626
(I1
(I3
tp1627
g712
I00
S"9\x0e\xe4\x8czb\xe9?\xe8'\x8d\x1bc-\xc8?\x87\xf9\x14\x87\x95E\x92?"
p1628
tp1629
bg4
(g712
S'\x07\x1d\xd6r\xeb\xb5\x849'
p1630
tp1631
Rp1632
tp1633
a(g1321
(g1322
(I0
tp1634
g1324
tp1635
Rp1636
(I1
(I3
tp1637
g712
I00
S'\x8aa\xc4\xa0\x883\xe7?!\xe4\xe8\x15\xe1\x86\xd0?\xb6\x8c\xe5\x88\xda \x91?'
p1638
tp1639
bg4
(g712
S'\xbaU\xf6\xde\xdb\x8f09'
p1640
tp1641
Rp1642
tp1643
a(g1321
(g1322
(I0
tp1644
g1324
tp1645
Rp1646
(I1
(I3
tp1647
g712
I00
S'\xd9\x8e\r\x12\x1at\xe7?\xe0\x11 \xa1\xee\xf1\xcf?\xc7\x95M\xb5H\xed\x91?'
p1648
tp1649
bg4
(g712
S'&L"\x93\xd6\xbb\x069'
p1650
tp1651
Rp1652
tp1653
a(g1321
(g1322
(I0
tp1654
g1324
tp1655
Rp1656
(I1
(I3
tp1657
g712
I00
S'\x88\x98m\x93\xd5C\xe7?\x97\x08\xd9\xd3kR\xd0?ve\xbcT\x90^\x92?'
p1658
tp1659
bg4
(g712
S'\xbe|1\xa4^\x9f\xde8'
p1660
tp1661
Rp1662
tp1663
a(g1321
(g1322
(I0
tp1664
g1324
tp1665
Rp1666
(I1
(I3
tp1667
g712
I00
S'7\xc7\xf4@\x00X\xe8?\xb8`\xd7a\x8c$\xcc?K\x13\xac\xd2\x94\xdb\x93?'
p1668
tp1669
bg4
(g712
S"<'\xc9\xb4\xd0\x18\xa48"
p1670
tp1671
Rp1672
tp1673
a(g1321
(g1322
(I0
tp1674
g1324
tp1675
Rp1676
(I1
(I3
tp1677
g712
I00
S'\xc7\xc0\xa8\xd9rP\xe8?\x1b|\xad\xbe-2\xcc?H\x06|\xd56`\x94?'
p1678
tp1679
bg4
(g712
S'"-\x10f:K{8'
p1680
tp1681
Rp1682
tp1683
a(g1321
(g1322
(I0
tp1684
g1324
tp1685
Rp1686
(I1
(I3
tp1687
g712
I00
S'\xdbY\xc7\xa0\x8e\x89\xe9?\x04\x1fq\xab\x98\x1a\xc7?b\xcc\x8b\x8bf\xf9\x95?'
p1688
tp1689
bg4
(g712
S'{\xf0\xea` \xe528'
p1690
tp1691
Rp1692
tp1693
a(g1321
(g1322
(I0
tp1694
g1324
tp1695
Rp1696
(I1
(I3
tp1697
g712
I00
S'\xe4x\xd2,\xe7\xcd\xe9?@\xb5\xaaG\x9e\xf2\xc5?\x909[((\xae\x96?'
p1698
tp1699
bg4
(g712
S'\xbd\xb7\x17b\x98u\x088'
p1700
tp1701
Rp1702
tp1703
a(g1321
(g1322
(I0
tp1704
g1324
tp1705
Rp1706
(I1
(I3
tp1707
g712
I00
S'[6\x06\xf0\x19\x0e\xea?Y\xf0\xda\x9e\t\xdc\xc4?\xe5\xb1a\x08u\\\x97?'
p1708
tp1709
bg4
(g712
S'\xd0W\xf9\x9au\xaf\xdf7'
p1710
tp1711
Rp1712
tp1713
a(g1321
(g1322
(I0
tp1714
g1324
tp1715
Rp1716
(I1
(I3
tp1717
g712
I00
S's\xbe\xe4WGO\xe9?\xc9\x96\xbc\x05\xfd\xde\xc7?n{\x83\xd5,\x1f\x97?'
p1718
tp1719
bg4
(g712
S'Z\xd6\xa0qj\xe3\xab7'
p1720
tp1721
Rp1722
tp1723
a(g1321
(g1322
(I0
tp1724
g1324
tp1725
Rp1726
(I1
(I3
tp1727
g712
I00
S"u\xb0`Bp\xe8\xe8?-\x06\xffP\xb3v\xc9?'\xc0\xf1+]<\x97?"
p1728
tp1729
bg4
(g712
S'\xddO\xa6\xc3=\xa8\x807'
p1730
tp1731
Rp1732
tp1733
a(g1321
(g1322
(I0
tp1734
g1324
tp1735
Rp1736
(I1
(I3
tp1737
g712
I00
S'\x05\xe5h\x8ac\x06\xea?^\x1f\xd4\xdaW\xcc\xc4?hdB\xdc\xcf\xd0\x98?'
p1738
tp1739
bg4
(g712
S'\xd3\xd6\xcbO\xf3.77'
p1740
tp1741
Rp1742
tp1743
a(g1321
(g1322
(I0
tp1744
g1324
tp1745
Rp1746
(I1
(I3
tp1747
g712
I00
S'\tzqW>H\xe9?\xa3\x18\xdc2\xb1\xcd\xc7?\xc4\xf9\xefz\xab\x8a\x98?'
p1748
tp1749
bg4
(g712
S'\xfb\xcf\xdf\xae\\g\x047'
p1750
tp1751
Rp1752
tp1753
a(g1321
(g1322
(I0
tp1754
g1324
tp1755
Rp1756
(I1
(I3
tp1757
g712
I00
S'\xa8*\xdeoG=\xe9?31\x83\xe2\x19\xeb\xc7?d!!\xf0B\xfe\x98?'
p1758
tp1759
bg4
(g712
S'nUusT\xb9\xdb6'
p1760
tp1761
Rp1762
tp1763
a(g1321
(g1322
(I0
tp1764
g1324
tp1765
Rp1766
(I1
(I3
tp1767
g712
I00
S'\xb4P%\x81,\x84\xe9?B?<\x9f\xa4\xb6\xc6?v\xefs\xe1J\xc5\x99?'
p1768
tp1769
bg4
(g712
S'e\xc1\xce\x86X\xef\xb16'
p1770
tp1771
Rp1772
tp1773
a(g1321
(g1322
(I0
tp1774
g1324
tp1775
Rp1776
(I1
(I3
tp1777
g712
I00
S'*D\x8d\x1a\x19\r\xea?\x17\xd2g\x8a\xeaq\xc4?\xde\xe9\x18[\x88\xcd\x9a?'
p1778
tp1779
bg4
(g712
S'~&\x81\xaf\xd0a\x826'
p1780
tp1781
Rp1782
tp1783
a(g1321
(g1322
(I0
tp1784
g1324
tp1785
Rp1786
(I1
(I3
tp1787
g712
I00
S'\x8aN\xe1\xd6^Q\xe9?m\xad\x11\xc5\xf8j\xc7?X\xc3H\xfb^|\x9a?'
p1788
tp1789
bg4
(g712
S'\xf2\x8e\x8c(\xee+P6'
p1790
tp1791
Rp1792
tp1793
a(g1321
(g1322
(I0
tp1794
g1324
tp1795
Rp1796
(I1
(I3
tp1797
g712
I00
S'\x18\xb6T\xc1\x1cF\xe9?\xca\x97\xf8\x1e\x9f\x89\xc7?\xc0~\xa4\xddn\xef\x9a?'
p1798
tp1799
bg4
(g712
S'\xcd\x8a?\xdfp\xf9%6'
p1800
tp1801
Rp1802
tp1803
a(g1321
(g1322
(I0
tp1804
g1324
tp1805
Rp1806
(I1
(I3
tp1807
g712
I00
S'\x8d\x1f5\x11\xfeX\xe9?\xc3\xa0o\xc2Y+\xc7?;\x08\xdf\xc5o\x85\x9b?'
p1808
tp1809
bg4
(g712
S'\x80^\x03CQJ\xfd5'
p1810
tp1811
Rp1812
tp1813
a(g1321
(g1322
(I0
tp1814
g1324
tp1815
Rp1816
(I1
(I3
tp1817
g712
I00
S"\x96N~\xdc'\xc9\xe9?\xa7\xef\xf5h\xecJ\xc5?\r\xb0\x86(\xa1\x83\x9c?"
p1818
tp1819
bg4
(g712
S'\tr\xaa\xa8\xcc+\xcf5'
p1820
tp1821
Rp1822
tp1823
a(g1321
(g1322
(I0
tp1824
g1324
tp1825
Rp1826
(I1
(I3
tp1827
g712
I00
S'\xe0I\xb9XX+\xe8?\x8a\xab\xb4\xb7\xdf\xec\xcb?\x94g1+\xf7-\x9b?'
p1828
tp1829
bg4
(g712
S'k\xfc\x83B|\xdb\x805'
p1830
tp1831
Rp1832
tp1833
a(g1321
(g1322
(I0
tp1834
g1324
tp1835
Rp1836
(I1
(I3
tp1837
g712
I00
S']\xc1L=\xefB\xe7?\xa8\xc1\xa4\xff:\x9d\xcf?\x0b\xc7AY@\xb8\x9a?'
p1838
tp1839
bg4
(g712
S'\xeb\x07\x8e{"\x8bK5'
p1840
tp1841
Rp1842
tp1843
a(g1321
(g1322
(I0
tp1844
g1324
tp1845
Rp1846
(I1
(I3
tp1847
g712
I00
S'\xf1\xee\x9e\xac\xf2J\xe6?\x02\xefnn\x94\xc6\xd1?\x9113\x85c8\x9a?'
p1848
tp1849
bg4
(g712
S'#\x92\x11\x89\x02\x99\x165'
p1850
tp1851
Rp1852
tp1853
a(g1321
(g1322
(I0
tp1854
g1324
tp1855
Rp1856
(I1
(I3
tp1857
g712
I00
S'\xe9\xc1\x9f\xc7\xa4D\xe5?\x80\x1f\x9f\xcc\xc6\xdb\xd3?\xeb\xca\x15B\xfa\xae\x99?'
p1858
tp1859
bg4
(g712
S'\x13\rq\xd7\xb7\x9f\xe24'
p1860
tp1861
Rp1862
tp1863
a(g1321
(g1322
(I0
tp1864
g1324
tp1865
Rp1866
(I1
(I3
tp1867
g712
I00
S'z\xa4\x02@{\xd7\xe5?\xc3\xc1c.F\x9e\xd2?\x90To\x195,\x9b?'
p1868
tp1869
bg4
(g712
S'\x0b3@\x81\x84\x02\xb44'
p1870
tp1871
Rp1872
tp1873
a(g1321
(g1322
(I0
tp1874
g1324
tp1875
Rp1876
(I1
(I3
tp1877
g712
I00
S'\xdd\xc6/\x8b\x1f\xa6\xe5?\xfey\xe6*\t\xf9\xd2?\x7f\x84\x9f\xeb{\xab\x9b?'
p1878
tp1879
bg4
(g712
S'\xdc\x94\xf1j\xfaz\x884'
p1880
tp1881
Rp1882
tp1883
a(g1321
(g1322
(I0
tp1884
g1324
tp1885
Rp1886
(I1
(I3
tp1887
g712
I00
S'\x83\x19\x02\x80}~\xe3?h\xa7g\xfcsi\xd7?DYB9\x10\x99\x99?'
p1888
tp1889
bg4
(g712
S'\xd6\xf5\xe3\x1a9\x0c:4'
p1890
tp1891
Rp1892
tp1893
a(g1321
(g1322
(I0
tp1894
g1324
tp1895
Rp1896
(I1
(I3
tp1897
g712
I00
S'<\x0f\xb4J\x93\xe0\xe3?\x82\x95\xff\xe9\xa3\x8e\xd6?R\xc0\x84\tX\x03\x9b?'
p1898
tp1899
bg4
(g712
S'\xe8\x8bi\xf1\x8eo\x0e4'
p1900
tp1901
Rp1902
tp1903
a(g1321
(g1322
(I0
tp1904
g1324
tp1905
Rp1906
(I1
(I3
tp1907
g712
I00
S'\xd0\xa7\xe8\x8d\xe3?\xe4?v\xa9\x9e\xec\xa8\xb9\xd5?\x95n\x00y\xffh\x9c?'
p1908
tp1909
bg4
(g712
S'\xf3\x98\x94J1\xcc\xe13'
p1910
tp1911
Rp1912
tp1913
a(g1321
(g1322
(I0
tp1914
g1324
tp1915
Rp1916
(I1
(I3
tp1917
g712
I00
S'P\xb7P\x87\x9bX\xe3?\xa1\xd5\x11\x8dl\x8f\xd7?\xe7\xbb\xcbD\xc6\xf5\x9b?'
p1918
tp1919
bg4
(g712
S'\xf4\x1eH\xf3\x87E\xaf3'
p1920
tp1921
Rp1922
tp1923
a(g1321
(g1322
(I0
tp1924
g1324
tp1925
Rp1926
(I1
(I3
tp1927
g712
I00
S'\xd9}+\xe5yt\xe4?0\xa6\xc5\xf7\x9d.\xd5?\xdf\xe15\xde\xe3\x86\x9e?'
p1928
tp1929
bg4
(g712
S'"\x84\x91\xadY\xddt3'
p1930
tp1931
Rp1932
tp1933
a(g1321
(g1322
(I0
tp1934
g1324
tp1935
Rp1936
(I1
(I3
tp1937
g712
I00
S'\x94\x1c\xf40\xa5.\xe4?\xf9\x98\xde(G\xb3\xd5?\xea\xdd\x92S\xe7\xf6\x9e?'
p1938
tp1939
bg4
(g712
S'\xb4x\xbc\x03\x079H3'
p1940
tp1941
Rp1942
tp1943
a(g1321
(g1322
(I0
tp1944
g1324
tp1945
Rp1946
(I1
(I3
tp1947
g712
I00
S'\xf4\n0\xdc&>\xe3?2\xc3\xcdd\xe0\x9d\xd7?nn"-\x1e]\x9e?'
p1948
tp1949
bg4
(g712
S'\xa4M\xbcj\xc8\xc7\x133'
p1950
tp1951
Rp1952
tp1953
a(g1321
(g1322
(I0
tp1954
g1324
tp1955
Rp1956
(I1
(I3
tp1957
g712
I00
S'\x1bF\xdb\xb4\xba\xe4\xe2?\xa3-\x81\x05\xaeJ\xd8?\\b\x84\x0c\xc9\xbd\x9e?'
p1958
tp1959
bg4
(g712
S'H\xfe\x97$F\xcb\xe52'
p1960
tp1961
Rp1962
tp1963
a(g1321
(g1322
(I0
tp1964
g1324
tp1965
Rp1966
(I1
(I3
tp1967
g712
I00
S'P\x88y\x86K\x8b\xe2?l\xcdb\x84i\xf7\xd8?1\x1f\xa2\xea\xf6\x1f\x9f?'
p1968
tp1969
bg4
(g712
S't\x12\xc7\xf1[\x05\xb82'
p1970
tp1971
Rp1972
tp1973
a(g1321
(g1322
(I0
tp1974
g1324
tp1975
Rp1976
(I1
(I3
tp1977
g712
I00
S'\x1b\xee\xe1_Kf\xe3?r\x03j(\xb2\x19\xd7?\xc7\x02\x91\xbe\xb8\xcd\xa0?'
p1978
tp1979
bg4
(g712
S'\xb3\x00\xdc\xfd\xf3\x9f\x822'
p1980
tp1981
Rp1982
tp1983
a(g1321
(g1322
(I0
tp1984
g1324
tp1985
Rp1986
(I1
(I3
tp1987
g712
I00
S'\xe7q7\xc8U7\xe4?\xa9\x0e\xa5\xd6\nQ\xd5?Gl`\xc7L\x02\xa2?'
p1988
tp1989
bg4
(g712
S'\\\\w:f\xfeL2'
p1990
tp1991
Rp1992
tp1993
a(g1321
(g1322
(I0
tp1994
g1324
tp1995
Rp1996
(I1
(I3
tp1997
g712
I00
S'Z\xc3\xc6\xfd\x02\xb0\xe4?\xc0\xa6\xc6\x86JC\xd4?a\x94^\xed{\xe5\xa2?'
p1998
tp1999
bg4
(g712
S'\xce\xdc\x1b|\xdb?\x1d2'
p2000
tp2001
Rp2002
tp2003
a(g1321
(g1322
(I0
tp2004
g1324
tp2005
Rp2006
(I1
(I3
tp2007
g712
I00
S"\x03\xa0\xcbD\x9c}\xe4?%'\xed\x8d\xba\x9f\xd4?\xaf\xc6\xdcCg(\xa3?"
p2008
tp2009
bg4
(g712
S'\x90\xa9\xe9L\x8d\x80\xf01'
p2010
tp2011
Rp2012
tp2013
a(g1321
(g1322
(I0
tp2014
g1324
tp2015
Rp2016
(I1
(I3
tp2017
g712
I00
S'\x10\xeb\x1d\xd5\xf8\xa1\xe4?Hau\xbe)D\xd4?\xc5Dv\xba$\xbf\xa3?'
p2018
tp2019
bg4
(g712
S'\xd6\x00U\x9cf\xcc\xc21'
p2020
tp2021
Rp2022
tp2023
a(g1321
(g1322
(I0
tp2024
g1324
tp2025
Rp2026
(I1
(I3
tp2027
g712
I00
S'\x12\r\x04\x13_\x15\xe5?K\x8c\x95N\xd1@\xd3?r\xcc\x12[\x84\xa3\xa4?'
p2028
tp2029
bg4
(g712
S'\x89\x95\x1d\x1d\xd3\xfd\x921'
p2030
tp2031
Rp2032
tp2033
a(g1321
(g1322
(I0
tp2034
g1324
tp2035
Rp2036
(I1
(I3
tp2037
g712
I00
S'\xc6\n\xcc\xf8\xf6\x0f\xe6?\xaf\xbd\xf9\xdf:\x1e\xd1?\x1cfqs\xb9\x0e\xa6?'
p2038
tp2039
bg4
(g712
S'y\x04\xba\xbb\xf9\x12T1'
p2040
tp2041
Rp2042
tp2043
a(g1321
(g1322
(I0
tp2044
g1324
tp2045
Rp2046
(I1
(I3
tp2047
g712
I00
S'\xfc\x13C\x923\xfb\xe5?\xa2\x8e\xb5\xff\xfb<\xd1?@K"\xde\xe6d\xa6?'
p2048
tp2049
bg4
(g712
S'\xaaNd\xbc5\xc0&1'
p2050
tp2051
Rp2052
tp2053
a(g1321
(g1322
(I0
tp2054
g1324
tp2055
Rp2056
(I1
(I3
tp2057
g712
I00
S'\x02\xd4}\xd8\x07\xf0\xe6?\xb5\xb7b\xa0\x05L\xce?\x12\xe1\x97\xf6k\xcf\xa7?'
p2058
tp2059
bg4
(g712
S'\xcc\x0c[\xc5u \xe40'
p2060
tp2061
Rp2062
tp2063
a(g1321
(g1322
(I0
tp2064
g1324
tp2065
Rp2066
(I1
(I3
tp2067
g712
I00
S'W\xf1^\x94>\xcb\xe7?\xc7\xe2u`\xcb\x8b\xca?j_98\xe9\x1c\xa9?'
p2068
tp2069
bg4
(g712
S']E*\xe6S\xe9\xa10'
p2070
tp2071
Rp2072
tp2073
a(g1321
(g1322
(I0
tp2074
g1324
tp2075
Rp2076
(I1
(I3
tp2077
g712
I00
S'M&\xa04\xe7&\xe7?\xc85Yn\x081\xcd?\x17\xc4\x98\xfcj\xcd\xa8?'
p2078
tp2079
bg4
(g712
S'\xfcdl\xd5\x11\x17n0'
p2080
tp2081
Rp2082
tp2083
a(g1321
(g1322
(I0
tp2084
g1324
tp2085
Rp2086
(I1
(I3
tp2087
g712
I00
S'\xad\xd2\x11\xf0\x16\xbb\xe6?\x99"F\x17\x9c\xe3\xce?\xd9J\xca\xa1 \xc0\xa8?'
p2088
tp2089
bg4
(g712
S'\xdd\x07+\x02`\x92=0'
p2090
tp2091
Rp2092
tp2093
a(g1321
(g1322
(I0
tp2094
g1324
tp2095
Rp2096
(I1
(I3
tp2097
g712
I00
S'uZ\xf8\xef8\xb2\xe7?\x87\xbf\xd1G\xca\xa7\xca?\x92Z3\xe1G=\xaa?'
p2098
tp2099
bg4
(g712
S'\xd1\x97\xaa\xd7B\x9f\xf1/'
p2100
tp2101
Rp2102
tp2103
a(g1321
(g1322
(I0
tp2104
g1324
tp2105
Rp2106
(I1
(I3
tp2107
g712
I00
S'\xa0\xf7]\xdb\xc2i\xe6?\xda;\x03\xeaJ\x06\xd0?6\xa7\x06\xfaz1\xa9?'
p2108
tp2109
bg4
(g712
S'\x12oP\x15\x02M\xa9/'
p2110
tp2111
Rp2112
tp2113
a(g1321
(g1322
(I0
tp2114
g1324
tp2115
Rp2116
(I1
(I3
tp2117
g712
I00
S'\xc3\r\xc2\x1c<\xfb\xe5?N\x1a0UO\xe5\xd0?hQ^\x8a\xc3!\xa9?'
p2118
tp2119
bg4
(g712
S'\x95rl\xfed\xe4x/'
p2120
tp2121
Rp2122
tp2123
a(g1321
(g1322
(I0
tp2124
g1324
tp2125
Rp2126
(I1
(I3
tp2127
g712
I00
S'\xdc-H:\xb9\xdd\xe6?%;\xf9G\xe7\xe1\xcd?\xb85\x98;\xcf\x9c\xaa?'
p2128
tp2129
bg4
(g712
S'\xd69\x84\xf3\x9a\xce4/'
p2130
tp2131
Rp2132
tp2133
a(g1321
(g1322
(I0
tp2134
g1324
tp2135
Rp2136
(I1
(I3
tp2137
g712
I00
S'\xf7\x82\xf7\xee\x9fm\xe3?\x87\x8d\xaa\x84XE\xd6?hd3\xeb<\xfb\xa6?'
p2138
tp2139
bg4
(g712
S'\xee\x17j\xb6\xfc\x17\x93.'
p2140
tp2141
Rp2142
tp2143
a(g1321
(g1322
(I0
tp2144
g1324
tp2145
Rp2146
(I1
(I3
tp2147
g712
I00
S'\x8bN\xf5\xce\xbbf\xe4?\x96\xfa\x872n\x1c\xd4?\xacBk|\xd1\xb0\xa8?'
p2148
tp2149
bg4
(g712
S'o\xdf\xb3Q^\xaaQ.'
p2150
tp2151
Rp2152
tp2153
a(g1321
(g1322
(I0
tp2154
g1324
tp2155
Rp2156
(I1
(I3
tp2157
g712
I00
S'r\x1e 60\x89\xe3?SpXWC\xe9\xd5?2\x96:\xe3\xe1"\xa8?'
p2158
tp2159
bg4
(g712
S'\x16a\x86\xd7\x96\xb6\x18.'
p2160
tp2161
Rp2162
tp2163
a(g1321
(g1322
(I0
tp2164
g1324
tp2165
Rp2166
(I1
(I3
tp2167
g712
I00
S'\x99\xc8*\xf4\x8a\x9d\xe4?\x07\xce\xb1\xbb}\x83\xd3?F\x06\xc5\xdfb\x0b\xaa?'
p2168
tp2169
bg4
(g712
S'\x92\x03\xbf\xe8\xe9\x0c\xd0-'
p2170
tp2171
Rp2172
tp2173
a(g1321
(g1322
(I0
tp2174
g1324
tp2175
Rp2176
(I1
(I3
tp2177
g712
I00
S'c7Iq\xe6.\xe5?,0\xb2\xd5\xb18\xd2?~\x08\xdb=\nL\xab?'
p2178
tp2179
bg4
(g712
S'pg\x84\xd5\xcb\x0e\x97-'
p2180
tp2181
Rp2182
tp2183
a(g1321
(g1322
(I0
tp2184
g1324
tp2185
Rp2186
(I1
(I3
tp2187
g712
I00
S'\x06\xdd.U9\x1f\xe6?"\x83j\x96K \xd0?\x94\x16\xbe\xf9\r\n\xad?'
p2188
tp2189
bg4
(g712
S'\xfd\xf0u\xb9\xadCN-'
p2190
tp2191
Rp2192
tp2193
a(g1321
(g1322
(I0
tp2194
g1324
tp2195
Rp2196
(I1
(I3
tp2197
g712
I00
S'\xe48\xaaZ?\xc9\xe6?\x03A4\xcef@\xcd?\xb7m\x8b\x1coj\xae?'
p2198
tp2199
bg4
(g712
S'\xf6`\xa78\x1dS\x0f-'
p2200
tp2201
Rp2202
tp2203
a(g1321
(g1322
(I0
tp2204
g1324
tp2205
Rp2206
(I1
(I3
tp2207
g712
I00
S'e\xa7\x8dA\xbec\xe7?!\xb7\x98\xa7\x8c\x83\xca?(\xad\xc2H\xe9\xb5\xaf?'
p2208
tp2209
bg4
(g712
S'\xfd\x01@cTD\xd0,'
p2210
tp2211
Rp2212
tp2213
a(g1321
(g1322
(I0
tp2214
g1324
tp2215
Rp2216
(I1
(I3
tp2217
g712
I00
S'\xcd}\x8f\x1e!h\xe7?\xdb\x7f\xe6\xc0\xbfR\xca?\xe8\x11\xb7\x89w\x19\xb0?'
p2218
tp2219
bg4
(g712
S'\x05\x9a18\x1f\x81\xa0,'
p2220
tp2221
Rp2222
tp2223
a(g1321
(g1322
(I0
tp2224
g1324
tp2225
Rp2226
(I1
(I3
tp2227
g712
I00
S'8\xec5\xd3"#\xe8?3?\xa3\x86%\x07\xc7?\xd3\x1f\nY\x9e\xd8\xb0?'
p2228
tp2229
bg4
(g712
S'\xbdE\xfc\xf5\xea&R,'
p2230
tp2231
Rp2232
tp2233
a(g1321
(g1322
(I0
tp2234
g1324
tp2235
Rp2236
(I1
(I3
tp2237
g712
I00
S'\x8c\xafj\x1b\x01\xf7\xe6?VyY\x05r\x04\xcc?\xf8\x90\xf7\x19\x13?\xb0?'
p2238
tp2239
bg4
(g712
S'\xdeI\xd1\xfb\x1fO\x05,'
p2240
tp2241
Rp2242
tp2243
a(g1321
(g1322
(I0
tp2244
g1324
tp2245
Rp2246
(I1
(I3
tp2247
g712
I00
S'\x075\xe1\x0e\xbb>\xe7?\x0ec\x1b\xdar\xac\xca?\xab\x91\xbf\xd4A\xb1\xb0?'
p2248
tp2249
bg4
(g712
S'\xdb!\xcb\xce\x1a\xc1\xd1+'
p2250
tp2251
Rp2252
tp2253
a(g1321
(g1322
(I0
tp2254
g1324
tp2255
Rp2256
(I1
(I3
tp2257
g712
I00
S'r\xe1\xdc\xf6\xad\xcf\xe6?\x08\xb2\xc31\x92q\xcc?]\x90\x91\xe5k\x9f\xb0?'
p2258
tp2259
bg4
(g712
S'\xe1\xbev\xd0\xdf}\x9f+'
p2260
tp2261
Rp2262
tp2263
a(g1321
(g1322
(I0
tp2264
g1324
tp2265
Rp2266
(I1
(I3
tp2267
g712
I00
S'\xf1ZV\xdc\xe0&\xe7?\x82\x99\xe3*$\xd4\xca?z\xf5\x85\xc7\xb0 \xb1?'
p2268
tp2269
bg4
(g712
S'B\x84f1=\xd6g+'
p2270
tp2271
Rp2272
tp2273
a(g1321
(g1322
(I0
tp2274
g1324
tp2275
Rp2276
(I1
(I3
tp2277
g712
I00
S'\xc1\x04\x9f\xe1W=\xe7?\x17\x04n\x87\xddP\xca?\xc3\xd1+\xe4\x85s\xb1?'
p2278
tp2279
bg4
(g712
S'U\x9d\x10\x15\xaf\xf45+'
p2280
tp2281
Rp2282
tp2283
a(g1321
(g1322
(I0
tp2284
g1324
tp2285
Rp2286
(I1
(I3
tp2287
g712
I00
S'\x7f\x97W\x16\xc4j\xe8?D\xf8\x13\x0f@\x07\xc5?\x81S\x1b/_\x9b\xb2?'
p2288
tp2289
bg4
(g712
S'\xdaZ\xb10]T\xa1*'
p2290
tp2291
Rp2292
tp2293
a(g1321
(g1322
(I0
tp2294
g1324
tp2295
Rp2296
(I1
(I3
tp2297
g712
I00
S'\x12\x9c\xd6Q\xa2\xfa\xe7?\xab\xea\xb7Bo\xd3\xc6?"J\xdb\xeb\x0e\x84\xb2?'
p2298
tp2299
bg4
(g712
S'\x08\xe59Z1/m*'
p2300
tp2301
Rp2302
tp2303
asS'trans_times'
p2304
(lp2305
(lp2306
g4
(g712
S'H*\x01$\xfc}\xa8?'
p2307
tp2308
Rp2309
aa(lp2310
g4
(g712
S"'/\xfb\x0e|\xb3\x83?"
p2311
tp2312
Rp2313
aa(lp2314
a(lp2315
a(lp2316
g4
(g712
S'J\xc5\x1e;\xf6L\x9a?'
p2317
tp2318
Rp2319
ag4
(g712
S'-V9J\xd7#\xa3?'
p2320
tp2321
Rp2322
aa(lp2323
a(lp2324
a(lp2325
a(lp2326
g4
(g712
S'M7\x04\x7fy\x89\x84?'
p2327
tp2328
Rp2329
aa(lp2330
g4
(g712
S'\xae_\xb8)\x06|x?'
p2331
tp2332
Rp2333
ag4
(g712
S'\xad\xb9\xa8a\xda\x1c\xb5?'
p2334
tp2335
Rp2336
aa(lp2337
g717
aa(lp2338
a(lp2339
g4
(g712
S'\xadTK\x1c\x84c\xb5?'
p2340
tp2341
Rp2342
aa(lp2343
g4
(g712
S'L\x1e \xe3\x7f\xb4\x9c?'
p2344
tp2345
Rp2346
aa(lp2347
a(lp2348
g4
(g712
S'\xd0\x83(8k)\xb5?'
p2349
tp2350
Rp2351
aa(lp2352
a(lp2353
g4
(g712
S'\xadU\xb3\x08\xeff\xb4?'
p2354
tp2355
Rp2356
aa(lp2357
g4
(g712
S'\x15e\xac\xbea\x90\xb0?'
p2358
tp2359
Rp2360
aa(lp2361
g4
(g712
S'\x1f\x04\x83<\x8a\xaa\x90?'
p2362
tp2363
Rp2364
ag4
(g712
S'*\xef#&\xad\xe1\xb7?'
p2365
tp2366
Rp2367
aa(lp2368
a(lp2369
g4
(g712
S'[\xcd\x893\xf6\x9f\xb7?'
p2370
tp2371
Rp2372
aa(lp2373
a(lp2374
g717
aa(lp2375
g4
(g712
S'\x1d\x92)*\xbf\x8b\x9d?'
p2376
tp2377
Rp2378
aa(lp2379
a(lp2380
a(lp2381
a(lp2382
a(lp2383
a(lp2384
a(lp2385
a(lp2386
a(lp2387
a(lp2388
a(lp2389
a(lp2390
g717
aa(lp2391
g4
(g712
S'\xb1\xc9]K\x9f\xdb\x83?'
p2392
tp2393
Rp2394
aa(lp2395
g4
(g712
S'\xce\x04\x87;\xd0N\xb3?'
p2396
tp2397
Rp2398
aa(lp2399
a(lp2400
g4
(g712
S'\x89\x02?\xbf\x16&\xa1?'
p2401
tp2402
Rp2403
aa(lp2404
a(lp2405
g4
(g712
S'\xe0*r\x12Q\xfd\xaf?'
p2406
tp2407
Rp2408
aa(lp2409
g4
(g712
S'{3\xde\x07gm\xb2?'
p2410
tp2411
Rp2412
aa(lp2413
a(lp2414
g4
(g712
S'\xd3\xd1K^\n\xa8\xb4?'
p2415
tp2416
Rp2417
aa(lp2418
g717
aa(lp2419
a(lp2420
g4
(g712
S'\xd0\x13nB\xcdI6?'
p2421
tp2422
Rp2423
aa(lp2424
g4
(g712
S'\xa5\xca\x89\x9c\x1aV\xaf?'
p2425
tp2426
Rp2427
aa(lp2428
a(lp2429
g717
aa(lp2430
a(lp2431
a(lp2432
a(lp2433
a(lp2434
a(lp2435
a(lp2436
a(lp2437
g4
(g712
S'\xaabii3\xdd\xb6?'
p2438
tp2439
Rp2440
aa(lp2441
g4
(g712
S'E\r\x94\xf1D9\x94?'
p2442
tp2443
Rp2444
aa(lp2445
a(lp2446
g717
aa(lp2447
g4
(g712
S'\xd8 \xcdE\xe6\xa9\xa8?'
p2448
tp2449
Rp2450
aa(lp2451
a(lp2452
g717
aa(lp2453
a(lp2454
a(lp2455
a(lp2456
a(lp2457
a(lp2458
a(lp2459
g4
(g712
S'\xfc\xbc\x01\x12\xa2P\xb8?'
p2460
tp2461
Rp2462
aa(lp2463
a(lp2464
g4
(g712
S'm\xd5\n\x08\x00Ai?'
p2465
tp2466
Rp2467
ag4
(g712
S')S\x8a\x87\x86+\x9b?'
p2468
tp2469
Rp2470
aa(lp2471
g4
(g712
S'^\xad\xb9\xa0m\x9f\xab?'
p2472
tp2473
Rp2474
aa(lp2475
a(lp2476
g4
(g712
S'&\x95\xc6\xee\xe1\xd0\xac?'
p2477
tp2478
Rp2479
aa(lp2480
a(lp2481
g717
aa(lp2482
a(lp2483
g4
(g712
S'4&\xa5S\x9eh\xb3?'
p2484
tp2485
Rp2486
aa(lp2487
a(lp2488
a(lp2489
g4
(g712
S'f\xfft\xaa\xb1\xd8\xb4?'
p2490
tp2491
Rp2492
aa(lp2493
g4
(g712
S'\xfe o\xd6\x8f\x94\xab?'
p2494
tp2495
Rp2496
aa(lp2497
a(lp2498
a(lp2499
a(lp2500
a(lp2501
g4
(g712
S'p\x16A\xeb\xa38\xb8?'
p2502
tp2503
Rp2504
aa(lp2505
a(lp2506
g717
aa(lp2507
g4
(g712
S'\xe2\x98\xdbW\xf7<7?'
p2508
tp2509
Rp2510
ag4
(g712
S'b\xe3\xd4}+\x11\x9f?'
p2511
tp2512
Rp2513
aa(lp2514
a(lp2515
a(lp2516
a(lp2517
a(lp2518
g4
(g712
S'L9\x92\xb8\xca\xf1\xae?'
p2519
tp2520
Rp2521
aa(lp2522
asS'I'
p2523
I43
sS'bracket_times'
p2524
(lp2525
sS'n'
p2526
I100
sS'p'
p2527
g1320
sS'beta'
p2528
F0.2
sS'debug_P_fwd'
p2529
(lp2530
g1321
(g1322
(I0
tp2531
g1324
tp2532
Rp2533
(I1
(I3
I3
tp2534
g712
I00
S'\x82\x19\xda\xd2\xd9\xb9\xef?\xfb\xbdv\x15\r\x85\x81?\xd7\x0b\x85\x0b\xd0\xf8\xe1>\x00\x00\x00\x00\x00\x00\x00\x00v\xcd3\xe3\xa1\xef\xef? \x892\xcc\x1c^`?\x00\x00\x00\x00\x00\x00\x00\x00\x00\x00\x00\x00\x00\x00\x00\x00\x00\x00\x00\x00\x00\x00\xf0?'
p2535
tp2536
basS'rho'
p2537
F0.4
sS'debug_P'
p2538
(lp2539
g1321
(g1322
(I0
tp2540
g1324
tp2541
Rp2542
(I1
(I3
I3
tp2543
g712
I01
S'\x82\x19\xda\xd2\xd9\xb9\xef?\x00\x00\x00\x00\x00\x00\x00\x00\x00\x00\x00\x00\x00\x00\x00\x00\xfb\xbdv\x15\r\x85\x81?v\xcd3\xe3\xa1\xef\xef?\x00\x00\x00\x00\x00\x00\x00\x00\xd7\x0b\x85\x0b\xd0\xf8\xe1> \x892\xcc\x1c^`?\x00\x00\x00\x00\x00\x00\xf0?'
p2544
tp2545
basS'y'
p2546
(lp2547
I5
aI6
aI3
aI5
aI5
aI3
aI10
aI7
aI4
aI7
aI7
aI4
aI5
aI10
aI8
aI7
aI4
aI8
aI8
aI6
aI4
aI8
aI3
aI4
aI9
aI8
aI10
aI9
aI6
aI9
aI3
aI7
aI13
aI8
aI9
aI6
aI9
aI5
aI8
aI8
aI11
aI10
aI5
aI11
aI9
aI8
aI7
aI11
aI9
aI9
aI8
aI14
aI12
aI12
aI12
aI9
aI11
aI15
aI10
aI10
aI13
aI8
aI12
aI14
aI13
aI13
aI10
aI10
aI11
aI13
aI12
aI11
aI9
aI13
aI9
aI9
aI15
aI15
aI9
aI18
aI15
aI10
aI24
aI11
aI18
aI11
aI13
aI11
aI12
aI12
aI15
aI11
aI21
aI14
aI18
aI14
aI16
aI8
aI19
aI17
asS'ict'
p2548
g1321
(g1322
(I0
tp2549
g1324
tp2550
Rp2551
(I1
(I2
tp2552
g712
I00
S'J\x0c\x02+\x87\x16\xb9?\xf2\xd2Mb\x10X\xb9?'
p2553
tp2554
bsS'gamma'
p2555
F2.0
sS'state_traj'
p2556
(dp2557
g717
(I90
I9
I0
tp2558
sg2474
(I73
I26
I0
tp2559
sg2423
(I89
I10
I0
tp2560
sg2346
(I79
I20
I0
tp2561
sg2504
(I57
I42
I0
tp2562
sg2309
(I76
I23
I0
tp2563
sg2450
(I75
I24
I0
tp2564
sg2364
(I82
I17
I0
tp2565
sg2412
(I67
I32
I0
tp2566
sg2467
(I87
I12
I0
tp2567
sg2356
(I64
I35
I0
tp2568
sg2440
(I59
I40
I0
tp2569
sg2333
(I86
I13
I0
tp2570
sg2378
(I78
I21
I0
tp2571
sg2492
(I62
I37
I0
tp2572
sg2394
(I84
I15
I0
tp2573
sg2479
(I72
I27
I0
tp2574
sg2444
(I81
I18
I0
tp2575
sg2462
(I56
I43
I0
tp2576
sg2408
(I69
I30
I0
tp2577
sg2486
(I65
I34
I0
tp2578
sg2372
(I58
I41
I0
tp2579
sg2496
(I74
I25
I0
tp2580
sg2510
(I88
I11
I0
tp2581
sg2351
(I61
I38
I0
tp2582
sg2521
(I71
I28
I0
tp2583
sg2313
(I85
I14
I0
tp2584
sg2329
(I83
I16
I0
tp2585
sg2319
(I80
I19
I0
tp2586
sg2398
(I66
I33
I0
tp2587
sg2342
(I60
I39
I0
tp2588
sg2427
(I70
I29
I0
tp2589
sg2417
(I63
I36
I0
tp2590
sg2360
(I68
I31
I0
tp2591
sg2403
(I77
I22
I0
tp2592
ssb.